; Function Attrs: nounwind sspstrong uwtable
define internal fastcc i64 @str2big_poweroftwo(i32 noundef range(i32 0, 2) %0, ptr noundef readnone captures(address) %1, ptr noundef readonly captures(address) %2, i64 noundef %3, i32 noundef range(i32 0, 33) %4) unnamed_addr #0 {
  %6 = alloca [6 x i64], align 16
  %7 = alloca i64, align 8
  %8 = lshr i64 %3, 5
  %9 = zext nneg i32 %4 to i64
  %10 = mul nuw i64 %8, %9
  %11 = and i64 %3, 31
  %12 = mul nuw nsw i64 %11, %9
  %13 = add nuw nsw i64 %12, 31
  %14 = lshr i64 %13, 5
  %15 = add nuw i64 %14, %10
  %16 = load i64, ptr @rb_cInteger, align 8, !tbaa !7
  %17 = tail call align 8 ptr @llvm.threadlocal.address.p0(ptr align 8 @ruby_current_ec)
  %18 = load ptr, ptr %17, align 8, !tbaa !14
  %19 = tail call i64 @rb_wb_protected_newobj_of(ptr noundef %18, i64 noundef %16, i64 noundef 10, i64 noundef 40) #27
  %20 = inttoptr i64 %19 to ptr
  %.not.i = icmp eq i32 %0, 0
  %21 = load i64, ptr %20, align 8, !tbaa !11
  %22 = and i64 %21, -8193
  %masksel.i.i = select i1 %.not.i, i64 0, i64 8192
  %.sink.i.i = or disjoint i64 %22, %masksel.i.i
  store i64 %.sink.i.i, ptr %20, align 8, !tbaa !11
  %23 = icmp ult i64 %15, 7
  br i1 %23, label %24, label %37

24:                                               ; preds = %5
  %25 = and i64 %.sink.i.i, -245761
  %26 = shl nuw nsw i64 %15, 15
  %27 = or disjoint i64 %25, %26
  %28 = or disjoint i64 %27, 16384
  store i64 %28, ptr %20, align 8, !tbaa !11
  call void @llvm.lifetime.start.p0(i64 48, ptr nonnull %6) #27
  call void @llvm.lifetime.start.p0(i64 8, ptr nonnull %7)
  store volatile i64 1296236545, ptr %6, align 16, !tbaa !7
  %29 = getelementptr inbounds nuw i8, ptr %20, i64 16
  %30 = ptrtoint ptr %29 to i64
  %31 = getelementptr inbounds nuw i8, ptr %6, i64 8
  store volatile i64 %30, ptr %31, align 8, !tbaa !7
  %32 = getelementptr inbounds nuw i8, ptr %6, i64 16
  store volatile i64 24, ptr %32, align 16, !tbaa !7
  %33 = getelementptr inbounds nuw i8, ptr %6, i64 24
  store volatile i64 0, ptr %33, align 8, !tbaa !7
  %34 = getelementptr inbounds nuw i8, ptr %6, i64 32
  store volatile i64 0, ptr %34, align 16, !tbaa !7
  %35 = getelementptr inbounds nuw i8, ptr %6, i64 40
  store volatile i64 0, ptr %35, align 8, !tbaa !7
  %36 = call i64 asm sideeffect "rolq $$3,  %rdi ; rolq $$13, %rdi\0A\09rolq $$61, %rdi ; rolq $$51, %rdi\0A\09xchgq %rbx,%rbx", "={dx},{ax},0,~{cc},~{memory},~{dirflag},~{fpsr},~{flags}"(ptr nonnull %6, i64 0) #27, !srcloc !17
  store volatile i64 %36, ptr %7, align 8, !tbaa !7
  %.0..0..0..0..0..0..i = load volatile i64, ptr %7, align 8, !tbaa !7
  call void @llvm.lifetime.end.p0(i64 8, ptr nonnull %7)
  call void @llvm.lifetime.end.p0(i64 48, ptr nonnull %6) #27
  br label %bignew_1.exit

37:                                               ; preds = %5
  %38 = tail call noalias nonnull ptr @ruby_xmalloc2(i64 noundef %15, i64 noundef 4) #28
  %39 = getelementptr inbounds nuw i8, ptr %20, i64 16
  %40 = getelementptr inbounds nuw i8, ptr %20, i64 24
  store ptr %38, ptr %40, align 8, !tbaa !13
  store i64 %15, ptr %39, align 8, !tbaa !13
  br label %bignew_1.exit

bignew_1.exit:                                    ; preds = %24, %37
  call void @rb_obj_freeze_inline(i64 noundef %19) #27
  %41 = load i64, ptr %20, align 8, !tbaa !11
  %42 = and i64 %41, 16384
  %.not.i33 = icmp eq i64 %42, 0
  br i1 %.not.i33, label %45, label %43

43:                                               ; preds = %bignew_1.exit
  %44 = getelementptr inbounds nuw i8, ptr %20, i64 16
  br label %BIGNUM_DIGITS.exit

45:                                               ; preds = %bignew_1.exit
  %46 = getelementptr inbounds nuw i8, ptr %20, i64 24
  %47 = load ptr, ptr %46, align 8, !tbaa !13
  br label %BIGNUM_DIGITS.exit

BIGNUM_DIGITS.exit:                               ; preds = %43, %45
  %.0.i = phi ptr [ %44, %43 ], [ %47, %45 ]
  %48 = icmp ult ptr %1, %2
  br i1 %48, label %.lr.ph, label %._crit_edge.thread

.lr.ph:                                           ; preds = %BIGNUM_DIGITS.exit, %67
  %.037 = phi ptr [ %.1, %67 ], [ %.0.i, %BIGNUM_DIGITS.exit ]
  %.02536 = phi i64 [ %.126, %67 ], [ 0, %BIGNUM_DIGITS.exit ]
  %.02735 = phi ptr [ %49, %67 ], [ %2, %BIGNUM_DIGITS.exit ]
  %.02834 = phi i32 [ %.129, %67 ], [ 0, %BIGNUM_DIGITS.exit ]
  %49 = getelementptr i8, ptr %.02735, i64 -1
  %50 = load i8, ptr %49, align 1, !tbaa !13
  %51 = zext i8 %50 to i64
  %52 = getelementptr [0 x i8], ptr @ruby_digit36_to_number_table, i64 0, i64 %51
  %53 = load i8, ptr %52, align 1, !tbaa !13
  %54 = icmp slt i8 %53, 0
  br i1 %54, label %67, label %55

55:                                               ; preds = %.lr.ph
  %56 = zext nneg i8 %53 to i64
  %57 = zext nneg i32 %.02834 to i64
  %58 = shl i64 %56, %57
  %59 = or i64 %58, %.02536
  %60 = add nuw nsw i32 %.02834, %4
  %61 = icmp sgt i32 %60, 31
  br i1 %61, label %62, label %67

62:                                               ; preds = %55
  %63 = trunc i64 %59 to i32
  %64 = getelementptr i8, ptr %.037, i64 4
  store i32 %63, ptr %.037, align 4, !tbaa !18
  %65 = lshr i64 %59, 32
  %66 = add nsw i32 %60, -32
  br label %67

67:                                               ; preds = %55, %62, %.lr.ph
  %.129 = phi i32 [ %.02834, %.lr.ph ], [ %66, %62 ], [ %60, %55 ]
  %.126 = phi i64 [ %.02536, %.lr.ph ], [ %65, %62 ], [ %59, %55 ]
  %.1 = phi ptr [ %.037, %.lr.ph ], [ %64, %62 ], [ %.037, %55 ]
  %68 = icmp ult ptr %1, %49
  br i1 %68, label %.lr.ph, label %._crit_edge, !llvm.loop !117

._crit_edge:                                      ; preds = %67
  %69 = icmp eq i32 %.129, 0
  br i1 %69, label %._crit_edge.thread, label %70

70:                                               ; preds = %._crit_edge
  %71 = trunc i64 %.126 to i32
  store i32 %71, ptr %.1, align 4, !tbaa !18
  br label %._crit_edge.thread

._crit_edge.thread:                               ; preds = %BIGNUM_DIGITS.exit, %70, %._crit_edge
  ret i64 %19
}